target datalayout = "e-m:e-p270:32:32-p271:32:32-p272:64:64-i64:64-i128:128-f80:128-n8:16:32:64-S128"
target triple = "x86_64-pc-linux-gnu"

%struct.s_chastore = type { ptr, ptr, i64, i64, ptr, ptr, i64 }
%struct.s_xdfenv = type { %struct.s_xdfile, %struct.s_xdfile }
%struct.s_xdfile = type { %struct.s_chastore, i64, i32, ptr, i64, i64, ptr, ptr, ptr, i64, ptr }

; Function Attrs: nounwind uwtable
define internal void @xdl_free_ctx(ptr noundef %0) #0 {
  %2 = alloca ptr, align 8
  store ptr %0, ptr %2, align 8, !tbaa !34
  %3 = load ptr, ptr %2, align 8, !tbaa !34
  %4 = getelementptr inbounds nuw %struct.s_xdfile, ptr %3, i32 0, i32 3
  %5 = load ptr, ptr %4, align 8, !tbaa !54
  call void @free(ptr noundef %5) #5
  %6 = load ptr, ptr %2, align 8, !tbaa !34
  %7 = getelementptr inbounds nuw %struct.s_xdfile, ptr %6, i32 0, i32 8
  %8 = load ptr, ptr %7, align 8, !tbaa !56
  call void @free(ptr noundef %8) #5
  %9 = load ptr, ptr %2, align 8, !tbaa !34
  %10 = getelementptr inbounds nuw %struct.s_xdfile, ptr %9, i32 0, i32 7
  %11 = load ptr, ptr %10, align 8, !tbaa !55
  %12 = getelementptr inbounds i8, ptr %11, i64 -1
  call void @free(ptr noundef %12) #5
  %13 = load ptr, ptr %2, align 8, !tbaa !34
  %14 = getelementptr inbounds nuw %struct.s_xdfile, ptr %13, i32 0, i32 10
  %15 = load ptr, ptr %14, align 8, !tbaa !58
  call void @free(ptr noundef %15) #5
  %16 = load ptr, ptr %2, align 8, !tbaa !34
  %17 = getelementptr inbounds nuw %struct.s_xdfile, ptr %16, i32 0, i32 6
  %18 = load ptr, ptr %17, align 8, !tbaa !52
  call void @free(ptr noundef %18) #5
  %19 = load ptr, ptr %2, align 8, !tbaa !34
  %20 = getelementptr inbounds nuw %struct.s_xdfile, ptr %19, i32 0, i32 0
  call void @xdl_cha_free(ptr noundef %20)
  ret void
}

; Function Attrs: nounwind uwtable
define dso_local void @xdl_free_env(ptr noundef %0) #0 {
  %2 = alloca ptr, align 8
  store ptr %0, ptr %2, align 8, !tbaa !11
  %3 = load ptr, ptr %2, align 8, !tbaa !11
  %4 = getelementptr inbounds nuw %struct.s_xdfenv, ptr %3, i32 0, i32 1
  call void @xdl_free_ctx(ptr noundef %4)
  %5 = load ptr, ptr %2, align 8, !tbaa !11
  %6 = getelementptr inbounds nuw %struct.s_xdfenv, ptr %5, i32 0, i32 0
  call void @xdl_free_ctx(ptr noundef %6)
  ret void
}