; Function Attrs: nounwind uwtable
define dso_local void @xdl_free_env(ptr noundef %0) local_unnamed_addr #0 {
  %2 = getelementptr inbounds nuw i8, ptr %0, i64 136
  %3 = getelementptr inbounds nuw i8, ptr %0, i64 208
  %4 = load ptr, ptr %3, align 8, !tbaa !24
  tail call void @free(ptr noundef %4) #6
  %5 = getelementptr inbounds nuw i8, ptr %0, i64 248
  %6 = load ptr, ptr %5, align 8, !tbaa !29
  tail call void @free(ptr noundef %6) #6
  %7 = getelementptr inbounds nuw i8, ptr %0, i64 240
  %8 = load ptr, ptr %7, align 8, !tbaa !30
  %9 = getelementptr inbounds i8, ptr %8, i64 -1
  tail call void @free(ptr noundef nonnull %9) #6
  %10 = getelementptr inbounds nuw i8, ptr %0, i64 264
  %11 = load ptr, ptr %10, align 8, !tbaa !31
  tail call void @free(ptr noundef %11) #6
  %12 = getelementptr inbounds nuw i8, ptr %0, i64 232
  %13 = load ptr, ptr %12, align 8, !tbaa !32
  tail call void @free(ptr noundef %13) #6
  tail call void @xdl_cha_free(ptr noundef nonnull %2) #6
  %14 = getelementptr inbounds nuw i8, ptr %0, i64 72
  %15 = load ptr, ptr %14, align 8, !tbaa !24
  tail call void @free(ptr noundef %15) #6
  %16 = getelementptr inbounds nuw i8, ptr %0, i64 112
  %17 = load ptr, ptr %16, align 8, !tbaa !29
  tail call void @free(ptr noundef %17) #6
  %18 = getelementptr inbounds nuw i8, ptr %0, i64 104
  %19 = load ptr, ptr %18, align 8, !tbaa !30
  %20 = getelementptr inbounds i8, ptr %19, i64 -1
  tail call void @free(ptr noundef nonnull %20) #6
  %21 = getelementptr inbounds nuw i8, ptr %0, i64 128
  %22 = load ptr, ptr %21, align 8, !tbaa !31
  tail call void @free(ptr noundef %22) #6
  %23 = getelementptr inbounds nuw i8, ptr %0, i64 96
  %24 = load ptr, ptr %23, align 8, !tbaa !32
  tail call void @free(ptr noundef %24) #6
  tail call void @xdl_cha_free(ptr noundef %0) #6
  ret void
}